target datalayout = "e-m:e-p270:32:32-p271:32:32-p272:64:64-i64:64-i128:128-f80:128-n8:16:32:64-S128"
target triple = "x86_64-pc-linux-gnu"

%struct.nghttp2_frame_hd = type { i64, i32, i8, i8, i8 }
%struct.nghttp2_extension = type { %struct.nghttp2_frame_hd, ptr }
%struct.nghttp2_origin_entry = type { ptr, i64 }
%struct.nghttp2_ext_origin = type { i64, ptr }

; Function Attrs: nounwind uwtable
define hidden i32 @nghttp2_frame_unpack_origin_payload(ptr noundef %0, ptr noundef %1, i64 noundef %2, ptr noundef %3) #0 {
  %5 = alloca i32, align 4
  %6 = alloca ptr, align 8
  %7 = alloca ptr, align 8
  %8 = alloca i64, align 8
  %9 = alloca ptr, align 8
  %10 = alloca ptr, align 8
  %11 = alloca ptr, align 8
  %12 = alloca ptr, align 8
  %13 = alloca ptr, align 8
  %14 = alloca i64, align 8
  %15 = alloca ptr, align 8
  %16 = alloca i64, align 8
  %17 = alloca i64, align 8
  %18 = alloca i32, align 4
  store ptr %0, ptr %6, align 8, !tbaa !8
  store ptr %1, ptr %7, align 8, !tbaa !3
  store i64 %2, ptr %8, align 8, !tbaa !18
  store ptr %3, ptr %9, align 8, !tbaa !8
  call void @llvm.lifetime.start.p0(i64 8, ptr %10) #7
  call void @llvm.lifetime.start.p0(i64 8, ptr %11) #7
  call void @llvm.lifetime.start.p0(i64 8, ptr %12) #7
  call void @llvm.lifetime.start.p0(i64 8, ptr %13) #7
  call void @llvm.lifetime.start.p0(i64 8, ptr %14) #7
  call void @llvm.lifetime.start.p0(i64 8, ptr %15) #7
  call void @llvm.lifetime.start.p0(i64 8, ptr %16) #7
  store i64 0, ptr %16, align 8, !tbaa !18
  call void @llvm.lifetime.start.p0(i64 8, ptr %17) #7
  store i64 0, ptr %17, align 8, !tbaa !18
  %19 = load ptr, ptr %6, align 8, !tbaa !8
  %20 = getelementptr inbounds nuw %struct.nghttp2_extension, ptr %19, i32 0, i32 1
  %21 = load ptr, ptr %20, align 8, !tbaa !49
  store ptr %21, ptr %10, align 8, !tbaa !8
  %22 = load ptr, ptr %7, align 8, !tbaa !3
  store ptr %22, ptr %12, align 8, !tbaa !3
  store ptr %22, ptr %11, align 8, !tbaa !3
  %23 = load i64, ptr %8, align 8, !tbaa !18
  %24 = icmp ne i64 %23, 0
  br i1 %24, label %25, label %29

25:                                               ; preds = %4
  %26 = load i64, ptr %8, align 8, !tbaa !18
  %27 = load ptr, ptr %12, align 8, !tbaa !3
  %28 = getelementptr inbounds nuw i8, ptr %27, i64 %26
  store ptr %28, ptr %12, align 8, !tbaa !3
  br label %29

29:                                               ; preds = %25, %4
  br label %30

30:                                               ; preds = %60, %50, %29
  %31 = load ptr, ptr %11, align 8, !tbaa !3
  %32 = load ptr, ptr %12, align 8, !tbaa !3
  %33 = icmp ne ptr %31, %32
  br i1 %33, label %34, label %70

34:                                               ; preds = %30
  %35 = load ptr, ptr %12, align 8, !tbaa !3
  %36 = load ptr, ptr %11, align 8, !tbaa !3
  %37 = ptrtoint ptr %35 to i64
  %38 = ptrtoint ptr %36 to i64
  %39 = sub i64 %37, %38
  %40 = icmp slt i64 %39, 2
  br i1 %40, label %41, label %42

41:                                               ; preds = %34
  store i32 -522, ptr %5, align 4
  store i32 1, ptr %18, align 4
  br label %133

42:                                               ; preds = %34
  %43 = load ptr, ptr %11, align 8, !tbaa !3
  %44 = call zeroext i16 @nghttp2_get_uint16(ptr noundef %43)
  %45 = zext i16 %44 to i64
  store i64 %45, ptr %14, align 8, !tbaa !18
  %46 = load ptr, ptr %11, align 8, !tbaa !3
  %47 = getelementptr inbounds i8, ptr %46, i64 2
  store ptr %47, ptr %11, align 8, !tbaa !3
  %48 = load i64, ptr %14, align 8, !tbaa !18
  %49 = icmp eq i64 %48, 0
  br i1 %49, label %50, label %51

50:                                               ; preds = %42
  br label %30, !llvm.loop !101

51:                                               ; preds = %42
  %52 = load i64, ptr %14, align 8, !tbaa !18
  %53 = load ptr, ptr %12, align 8, !tbaa !3
  %54 = load ptr, ptr %11, align 8, !tbaa !3
  %55 = ptrtoint ptr %53 to i64
  %56 = ptrtoint ptr %54 to i64
  %57 = sub i64 %55, %56
  %58 = icmp ugt i64 %52, %57
  br i1 %58, label %59, label %60

59:                                               ; preds = %51
  store i32 -522, ptr %5, align 4
  store i32 1, ptr %18, align 4
  br label %133

60:                                               ; preds = %51
  %61 = load i64, ptr %14, align 8, !tbaa !18
  %62 = load ptr, ptr %11, align 8, !tbaa !3
  %63 = getelementptr inbounds nuw i8, ptr %62, i64 %61
  store ptr %63, ptr %11, align 8, !tbaa !3
  %64 = load i64, ptr %14, align 8, !tbaa !18
  %65 = add i64 %64, 1
  %66 = load i64, ptr %17, align 8, !tbaa !18
  %67 = add i64 %66, %65
  store i64 %67, ptr %17, align 8, !tbaa !18
  %68 = load i64, ptr %16, align 8, !tbaa !18
  %69 = add i64 %68, 1
  store i64 %69, ptr %16, align 8, !tbaa !18
  br label %30, !llvm.loop !101

70:                                               ; preds = %30
  %71 = load i64, ptr %16, align 8, !tbaa !18
  %72 = icmp eq i64 %71, 0
  br i1 %72, label %73, label %78

73:                                               ; preds = %70
  %74 = load ptr, ptr %10, align 8, !tbaa !8
  %75 = getelementptr inbounds nuw %struct.nghttp2_ext_origin, ptr %74, i32 0, i32 1
  store ptr null, ptr %75, align 8, !tbaa !60
  %76 = load ptr, ptr %10, align 8, !tbaa !8
  %77 = getelementptr inbounds nuw %struct.nghttp2_ext_origin, ptr %76, i32 0, i32 0
  store i64 0, ptr %77, align 8, !tbaa !62
  store i32 0, ptr %5, align 4
  store i32 1, ptr %18, align 4
  br label %133

78:                                               ; preds = %70
  %79 = load i64, ptr %16, align 8, !tbaa !18
  %80 = mul i64 %79, 16
  %81 = load i64, ptr %17, align 8, !tbaa !18
  %82 = add i64 %81, %80
  store i64 %82, ptr %17, align 8, !tbaa !18
  %83 = load ptr, ptr %9, align 8, !tbaa !8
  %84 = load i64, ptr %17, align 8, !tbaa !18
  %85 = call ptr @nghttp2_mem_malloc(ptr noundef %83, i64 noundef %84)
  store ptr %85, ptr %15, align 8, !tbaa !8
  %86 = load ptr, ptr %15, align 8, !tbaa !8
  %87 = icmp eq ptr %86, null
  br i1 %87, label %88, label %89

88:                                               ; preds = %78
  store i32 -901, ptr %5, align 4
  store i32 1, ptr %18, align 4
  br label %133

89:                                               ; preds = %78
  %90 = load ptr, ptr %15, align 8, !tbaa !8
  %91 = load ptr, ptr %10, align 8, !tbaa !8
  %92 = getelementptr inbounds nuw %struct.nghttp2_ext_origin, ptr %91, i32 0, i32 1
  store ptr %90, ptr %92, align 8, !tbaa !60
  %93 = load i64, ptr %16, align 8, !tbaa !18
  %94 = load ptr, ptr %10, align 8, !tbaa !8
  %95 = getelementptr inbounds nuw %struct.nghttp2_ext_origin, ptr %94, i32 0, i32 0
  store i64 %93, ptr %95, align 8, !tbaa !62
  %96 = load ptr, ptr %15, align 8, !tbaa !8
  %97 = load i64, ptr %16, align 8, !tbaa !18
  %98 = mul i64 %97, 16
  %99 = getelementptr inbounds nuw i8, ptr %96, i64 %98
  store ptr %99, ptr %13, align 8, !tbaa !3
  %100 = load ptr, ptr %7, align 8, !tbaa !3
  store ptr %100, ptr %11, align 8, !tbaa !3
  br label %101

101:                                              ; preds = %114, %113, %89
  %102 = load ptr, ptr %11, align 8, !tbaa !3
  %103 = load ptr, ptr %12, align 8, !tbaa !3
  %104 = icmp ne ptr %102, %103
  br i1 %104, label %105, label %132

105:                                              ; preds = %101
  %106 = load ptr, ptr %11, align 8, !tbaa !3
  %107 = call zeroext i16 @nghttp2_get_uint16(ptr noundef %106)
  %108 = zext i16 %107 to i64
  store i64 %108, ptr %14, align 8, !tbaa !18
  %109 = load ptr, ptr %11, align 8, !tbaa !3
  %110 = getelementptr inbounds i8, ptr %109, i64 2
  store ptr %110, ptr %11, align 8, !tbaa !3
  %111 = load i64, ptr %14, align 8, !tbaa !18
  %112 = icmp eq i64 %111, 0
  br i1 %112, label %113, label %114

113:                                              ; preds = %105
  br label %101, !llvm.loop !102

114:                                              ; preds = %105
  %115 = load ptr, ptr %13, align 8, !tbaa !3
  %116 = load ptr, ptr %15, align 8, !tbaa !8
  %117 = getelementptr inbounds nuw %struct.nghttp2_origin_entry, ptr %116, i32 0, i32 0
  store ptr %115, ptr %117, align 8, !tbaa !99
  %118 = load i64, ptr %14, align 8, !tbaa !18
  %119 = load ptr, ptr %15, align 8, !tbaa !8
  %120 = getelementptr inbounds nuw %struct.nghttp2_origin_entry, ptr %119, i32 0, i32 1
  store i64 %118, ptr %120, align 8, !tbaa !56
  %121 = load ptr, ptr %13, align 8, !tbaa !3
  %122 = load ptr, ptr %11, align 8, !tbaa !3
  %123 = load i64, ptr %14, align 8, !tbaa !18
  %124 = call ptr @nghttp2_cpymem(ptr noundef %121, ptr noundef %122, i64 noundef %123)
  store ptr %124, ptr %13, align 8, !tbaa !3
  %125 = load ptr, ptr %13, align 8, !tbaa !3
  %126 = getelementptr inbounds nuw i8, ptr %125, i32 1
  store ptr %126, ptr %13, align 8, !tbaa !3
  store i8 0, ptr %125, align 1, !tbaa !14
  %127 = load i64, ptr %14, align 8, !tbaa !18
  %128 = load ptr, ptr %11, align 8, !tbaa !3
  %129 = getelementptr inbounds nuw i8, ptr %128, i64 %127
  store ptr %129, ptr %11, align 8, !tbaa !3
  %130 = load ptr, ptr %15, align 8, !tbaa !8
  %131 = getelementptr inbounds nuw %struct.nghttp2_origin_entry, ptr %130, i32 1
  store ptr %131, ptr %15, align 8, !tbaa !8
  br label %101, !llvm.loop !102

132:                                              ; preds = %101
  store i32 0, ptr %5, align 4
  store i32 1, ptr %18, align 4
  br label %133

133:                                              ; preds = %132, %88, %73, %59, %41
  call void @llvm.lifetime.end.p0(i64 8, ptr %17) #7
  call void @llvm.lifetime.end.p0(i64 8, ptr %16) #7
  call void @llvm.lifetime.end.p0(i64 8, ptr %15) #7
  call void @llvm.lifetime.end.p0(i64 8, ptr %14) #7
  call void @llvm.lifetime.end.p0(i64 8, ptr %13) #7
  call void @llvm.lifetime.end.p0(i64 8, ptr %12) #7
  call void @llvm.lifetime.end.p0(i64 8, ptr %11) #7
  call void @llvm.lifetime.end.p0(i64 8, ptr %10) #7
  %134 = load i32, ptr %5, align 4
  ret i32 %134
}