; Function Attrs: nounwind uwtable
define hidden range(i32 -901, 1) i32 @nghttp2_frame_unpack_origin_payload(ptr noundef readonly captures(none) %0, ptr noundef %1, i64 noundef %2, ptr noundef %3) local_unnamed_addr #0 {
  %5 = getelementptr inbounds nuw i8, ptr %0, i64 16
  %6 = load ptr, ptr %5, align 8, !tbaa !46
  %7 = getelementptr inbounds nuw i8, ptr %1, i64 %2
  %8 = ptrtoint ptr %7 to i64
  br label %.outer64

.outer64:                                         ; preds = %23, %4
  %.055.ph = phi ptr [ %24, %23 ], [ %1, %4 ]
  %.051.ph = phi i64 [ %27, %23 ], [ 0, %4 ]
  %.0.ph = phi i64 [ %26, %23 ], [ 0, %4 ]
  br label %9

9:                                                ; preds = %.outer64, %14
  %.055 = phi ptr [ %16, %14 ], [ %.055.ph, %.outer64 ]
  %.not61 = icmp eq ptr %.055, %7
  br i1 %.not61, label %28, label %10

10:                                               ; preds = %9
  %11 = ptrtoint ptr %.055 to i64
  %12 = sub i64 %8, %11
  %13 = icmp slt i64 %12, 2
  br i1 %13, label %.loopexit, label %14

14:                                               ; preds = %10
  %15 = tail call zeroext i16 @nghttp2_get_uint16(ptr noundef %.055) #18
  %16 = getelementptr inbounds nuw i8, ptr %.055, i64 2
  %17 = icmp eq i16 %15, 0
  br i1 %17, label %9, label %18, !llvm.loop !92

18:                                               ; preds = %14
  %19 = zext i16 %15 to i64
  %20 = ptrtoint ptr %16 to i64
  %21 = sub i64 %8, %20
  %22 = icmp ult i64 %21, %19
  br i1 %22, label %.loopexit, label %23

23:                                               ; preds = %18
  %24 = getelementptr inbounds nuw i8, ptr %16, i64 %19
  %25 = add i64 %.0.ph, 1
  %26 = add i64 %25, %19
  %27 = add i64 %.051.ph, 1
  br label %.outer64, !llvm.loop !92

28:                                               ; preds = %9
  %29 = icmp eq i64 %.051.ph, 0
  br i1 %29, label %30, label %31

30:                                               ; preds = %28
  tail call void @llvm.memset.p0.i64(ptr noundef nonnull align 8 dereferenceable(16) %6, i8 0, i64 16, i1 false)
  br label %.loopexit

31:                                               ; preds = %28
  %32 = shl i64 %.051.ph, 4
  %33 = add i64 %.0.ph, %32
  %34 = tail call ptr @nghttp2_mem_malloc(ptr noundef %3, i64 noundef %33) #18
  %35 = icmp eq ptr %34, null
  br i1 %35, label %.loopexit, label %36

36:                                               ; preds = %31
  %37 = getelementptr inbounds nuw i8, ptr %6, i64 8
  store ptr %34, ptr %37, align 8, !tbaa !57
  store i64 %.051.ph, ptr %6, align 8, !tbaa !59
  %38 = getelementptr inbounds nuw i8, ptr %34, i64 %32
  br label %.outer

.outer:                                           ; preds = %44, %36
  %.1.ph = phi ptr [ %49, %44 ], [ %1, %36 ]
  %.053.ph = phi ptr [ %48, %44 ], [ %38, %36 ]
  %.052.ph = phi ptr [ %50, %44 ], [ %34, %36 ]
  br label %39

39:                                               ; preds = %.outer, %40
  %.1 = phi ptr [ %42, %40 ], [ %.1.ph, %.outer ]
  %.not62 = icmp eq ptr %.1, %7
  br i1 %.not62, label %.loopexit, label %40

40:                                               ; preds = %39
  %41 = tail call zeroext i16 @nghttp2_get_uint16(ptr noundef %.1) #18
  %42 = getelementptr inbounds nuw i8, ptr %.1, i64 2
  %43 = icmp eq i16 %41, 0
  br i1 %43, label %39, label %44, !llvm.loop !93

44:                                               ; preds = %40
  %45 = zext i16 %41 to i64
  store ptr %.053.ph, ptr %.052.ph, align 8, !tbaa !90
  %46 = getelementptr inbounds nuw i8, ptr %.052.ph, i64 8
  store i64 %45, ptr %46, align 8, !tbaa !53
  %47 = tail call ptr @nghttp2_cpymem(ptr noundef %.053.ph, ptr noundef nonnull %42, i64 noundef %45) #18
  %48 = getelementptr inbounds nuw i8, ptr %47, i64 1
  store i8 0, ptr %47, align 1, !tbaa !10
  %49 = getelementptr inbounds nuw i8, ptr %42, i64 %45
  %50 = getelementptr inbounds nuw i8, ptr %.052.ph, i64 16
  br label %.outer, !llvm.loop !93

.loopexit:                                        ; preds = %18, %10, %39, %31, %30
  %.056 = phi i32 [ 0, %30 ], [ -901, %31 ], [ 0, %39 ], [ -522, %10 ], [ -522, %18 ]
  ret i32 %.056
}